; Function Attrs: mustprogress uwtable
define void @_ZN6icu_757UVectorC2EPFvPvEPFa8UElementS4_EiR10UErrorCode(ptr noundef nonnull align 8 dereferenceable(40) %this, ptr noundef %d, ptr noundef %c, i32 noundef %initialCapacity, ptr nocapture noundef nonnull align 4 dereferenceable(4) %status) unnamed_addr #1 align 2 personality ptr @__gxx_personality_v0 {
entry:
  store ptr getelementptr inbounds ({ [5 x ptr] }, ptr @_ZTVN6icu_757UVectorE, i64 0, i32 0, i64 2), ptr %this, align 8
  %count = getelementptr inbounds i8, ptr %this, i64 8
  %capacity = getelementptr inbounds i8, ptr %this, i64 12
  %elements = getelementptr inbounds i8, ptr %this, i64 16
  %deleter = getelementptr inbounds i8, ptr %this, i64 24
  tail call void @llvm.memset.p0.i64(ptr noundef nonnull align 8 dereferenceable(16) %count, i8 0, i64 16, i1 false)
  store ptr %d, ptr %deleter, align 8
  %comparer = getelementptr inbounds i8, ptr %this, i64 32
  store ptr %c, ptr %comparer, align 8
  %0 = load i32, ptr %status, align 4
  %cmp.i = icmp slt i32 %0, 1
  br i1 %cmp.i, label %if.end, label %if.end12

lpad:                                             ; preds = %if.end
  %1 = landingpad { ptr, i32 }
          cleanup
  tail call void @_ZN6icu_757UObjectD2Ev(ptr noundef nonnull align 8 dereferenceable(8) %this) #15
  resume { ptr, i32 } %1

if.end:                                           ; preds = %entry
  %2 = add i32 %initialCapacity, -268435456
  %or.cond = icmp ult i32 %2, -268435455
  %spec.store.select = select i1 %or.cond, i32 8, i32 %initialCapacity
  %3 = shl nuw nsw i32 %spec.store.select, 3
  %mul = zext nneg i32 %3 to i64
  %call6 = invoke noalias ptr @uprv_malloc_75(i64 noundef %mul) #16
          to label %invoke.cont5 unwind label %lpad

invoke.cont5:                                     ; preds = %if.end
  store ptr %call6, ptr %elements, align 8
  %cmp9 = icmp eq ptr %call6, null
  br i1 %cmp9, label %if.then10, label %if.else

if.then10:                                        ; preds = %invoke.cont5
  store i32 7, ptr %status, align 4
  br label %if.end12

if.else:                                          ; preds = %invoke.cont5
  store i32 %spec.store.select, ptr %capacity, align 4
  br label %if.end12

if.end12:                                         ; preds = %entry, %if.else, %if.then10
  ret void
}